target datalayout = "e-m:e-p270:32:32-p271:32:32-p272:64:64-i64:64-i128:128-f80:128-n8:16:32:64-S128"
target triple = "x86_64-pc-linux-gnu"

%struct._funnel_packet_menu_t = type { ptr, ptr, ptr, ptr, i8, ptr }

@registered_packet_menus = internal global ptr null, align 8
@packet_menus_modified = internal global i8 0, align 1

; Function Attrs: null_pointer_is_valid sspstrong uwtable
define void @funnel_register_all_packet_menus(ptr noundef %0) #1 {
  %2 = alloca ptr, align 8
  %3 = alloca ptr, align 8
  store ptr %0, ptr %2, align 8
  call void @llvm.lifetime.start.p0(i64 8, ptr %3) #8
  %4 = load ptr, ptr @registered_packet_menus, align 8
  store ptr %4, ptr %3, align 8
  br label %5

5:                                                ; preds = %26, %1
  %6 = load ptr, ptr %3, align 8
  %7 = icmp ne ptr %6, null
  br i1 %7, label %8, label %30

8:                                                ; preds = %5
  %9 = load ptr, ptr %2, align 8
  %10 = load ptr, ptr %3, align 8
  %11 = getelementptr inbounds nuw %struct._funnel_packet_menu_t, ptr %10, i32 0, i32 0
  %12 = load ptr, ptr %11, align 8
  %13 = load ptr, ptr %3, align 8
  %14 = getelementptr inbounds nuw %struct._funnel_packet_menu_t, ptr %13, i32 0, i32 1
  %15 = load ptr, ptr %14, align 8
  %16 = load ptr, ptr %3, align 8
  %17 = getelementptr inbounds nuw %struct._funnel_packet_menu_t, ptr %16, i32 0, i32 2
  %18 = load ptr, ptr %17, align 8
  %19 = load ptr, ptr %3, align 8
  %20 = getelementptr inbounds nuw %struct._funnel_packet_menu_t, ptr %19, i32 0, i32 3
  %21 = load ptr, ptr %20, align 8
  %22 = load ptr, ptr %3, align 8
  %23 = getelementptr inbounds nuw %struct._funnel_packet_menu_t, ptr %22, i32 0, i32 4
  %24 = load i8, ptr %23, align 8, !range !6, !noundef !7
  %25 = trunc i8 %24 to i1
  call void %9(ptr noundef %12, ptr noundef %15, ptr noundef %18, ptr noundef %21, i1 noundef zeroext %25)
  br label %26

26:                                               ; preds = %8
  %27 = load ptr, ptr %3, align 8
  %28 = getelementptr inbounds nuw %struct._funnel_packet_menu_t, ptr %27, i32 0, i32 5
  %29 = load ptr, ptr %28, align 8
  store ptr %29, ptr %3, align 8
  br label %5, !llvm.loop !17

30:                                               ; preds = %5
  store i8 0, ptr @packet_menus_modified, align 1
  call void @llvm.lifetime.end.p0(i64 8, ptr %3) #8
  ret void
}