; Function Attrs: null_pointer_is_valid sspstrong uwtable
define void @funnel_register_all_packet_menus(ptr noundef readonly captures(none) %0) local_unnamed_addr #2 {
  %.08 = load ptr, ptr @registered_packet_menus, align 8
  %.not9 = icmp eq ptr %.08, null
  br i1 %.not9, label %._crit_edge, label %.lr.ph

.lr.ph:                                           ; preds = %1, %.lr.ph
  %.010 = phi ptr [ %.0, %.lr.ph ], [ %.08, %1 ]
  %2 = load ptr, ptr %.010, align 8
  %3 = getelementptr inbounds nuw i8, ptr %.010, i64 8
  %4 = load ptr, ptr %3, align 8
  %5 = getelementptr inbounds nuw i8, ptr %.010, i64 16
  %6 = load ptr, ptr %5, align 8
  %7 = getelementptr inbounds nuw i8, ptr %.010, i64 24
  %8 = load ptr, ptr %7, align 8
  %9 = getelementptr inbounds nuw i8, ptr %.010, i64 32
  %10 = load i8, ptr %9, align 8, !range !10, !noundef !11
  %11 = trunc nuw i8 %10 to i1
  tail call void %0(ptr noundef %2, ptr noundef %4, ptr noundef %6, ptr noundef %8, i1 noundef zeroext %11)
  %12 = getelementptr inbounds nuw i8, ptr %.010, i64 40
  %.0 = load ptr, ptr %12, align 8
  %.not = icmp eq ptr %.0, null
  br i1 %.not, label %._crit_edge, label %.lr.ph, !llvm.loop !17

._crit_edge:                                      ; preds = %.lr.ph, %1
  store i1 false, ptr @packet_menus_modified, align 1
  ret void
}